target datalayout = "e-m:e-p270:32:32-p271:32:32-p272:64:64-i64:64-i128:128-f80:128-n8:16:32:64-S128"
target triple = "x86_64-pc-linux-gnu"

%struct.Qureg = type { i32, i32, i32, i64, i64, i32, i32, %struct.ComplexArray, %struct.ComplexArray, %struct.ComplexArray, ptr, ptr, ptr, ptr, ptr, ptr }
%struct.ComplexArray = type { ptr, ptr }

@__func__.multiRotatePauli = private unnamed_addr constant [17 x i8] c"multiRotatePauli\00", align 1
@.str.10 = private unnamed_addr constant [89 x i8] c"Here a %d-qubit multiRotatePauli of angle %.14g was performed (QASM not yet implemented)\00", align 1

; Function Attrs: nounwind uwtable
define void @multiRotatePauli(ptr noundef byval(%struct.Qureg) align 8 %0, ptr noundef %1, ptr noundef %2, i32 noundef %3, double noundef %4) #0 {
  %6 = alloca ptr, align 8
  %7 = alloca ptr, align 8
  %8 = alloca i32, align 4
  %9 = alloca double, align 8
  %10 = alloca i32, align 4
  %11 = alloca i32, align 4
  store ptr %1, ptr %6, align 8, !tbaa !27
  store ptr %2, ptr %7, align 8, !tbaa !29
  store i32 %3, ptr %8, align 4, !tbaa !4
  store double %4, ptr %9, align 8, !tbaa !25
  %12 = load ptr, ptr %6, align 8, !tbaa !27
  %13 = load i32, ptr %8, align 4, !tbaa !4
  call void @validateMultiTargets(ptr noundef byval(%struct.Qureg) align 8 %0, ptr noundef %12, i32 noundef %13, ptr noundef @__func__.multiRotatePauli)
  %14 = load ptr, ptr %7, align 8, !tbaa !29
  %15 = load i32, ptr %8, align 4, !tbaa !4
  call void @validatePauliCodes(ptr noundef %14, i32 noundef %15, ptr noundef @__func__.multiRotatePauli)
  call void @llvm.lifetime.start.p0(i64 4, ptr %10) #7
  store i32 0, ptr %10, align 4, !tbaa !4
  %16 = load ptr, ptr %6, align 8, !tbaa !27
  %17 = load ptr, ptr %7, align 8, !tbaa !29
  %18 = load i32, ptr %8, align 4, !tbaa !4
  %19 = load double, ptr %9, align 8, !tbaa !25
  %20 = load i32, ptr %10, align 4, !tbaa !4
  call void @statevec_multiRotatePauli(ptr noundef byval(%struct.Qureg) align 8 %0, ptr noundef %16, ptr noundef %17, i32 noundef %18, double noundef %19, i32 noundef %20)
  %21 = getelementptr inbounds nuw %struct.Qureg, ptr %0, i32 0, i32 0
  %22 = load i32, ptr %21, align 8, !tbaa !13
  %23 = icmp ne i32 %22, 0
  br i1 %23, label %24, label %39

24:                                               ; preds = %5
  store i32 1, ptr %10, align 4, !tbaa !4
  call void @llvm.lifetime.start.p0(i64 4, ptr %11) #7
  %25 = getelementptr inbounds nuw %struct.Qureg, ptr %0, i32 0, i32 1
  %26 = load i32, ptr %25, align 4, !tbaa !18
  store i32 %26, ptr %11, align 4, !tbaa !4
  %27 = load ptr, ptr %6, align 8, !tbaa !27
  %28 = load i32, ptr %8, align 4, !tbaa !4
  %29 = load i32, ptr %11, align 4, !tbaa !4
  call void @shiftIndices(ptr noundef %27, i32 noundef %28, i32 noundef %29)
  %30 = load ptr, ptr %6, align 8, !tbaa !27
  %31 = load ptr, ptr %7, align 8, !tbaa !29
  %32 = load i32, ptr %8, align 4, !tbaa !4
  %33 = load double, ptr %9, align 8, !tbaa !25
  %34 = load i32, ptr %10, align 4, !tbaa !4
  call void @statevec_multiRotatePauli(ptr noundef byval(%struct.Qureg) align 8 %0, ptr noundef %30, ptr noundef %31, i32 noundef %32, double noundef %33, i32 noundef %34)
  %35 = load ptr, ptr %6, align 8, !tbaa !27
  %36 = load i32, ptr %8, align 4, !tbaa !4
  %37 = load i32, ptr %11, align 4, !tbaa !4
  %38 = sub nsw i32 0, %37
  call void @shiftIndices(ptr noundef %35, i32 noundef %36, i32 noundef %38)
  call void @llvm.lifetime.end.p0(i64 4, ptr %11) #7
  br label %39

39:                                               ; preds = %24, %5
  %40 = load i32, ptr %8, align 4, !tbaa !4
  %41 = load double, ptr %9, align 8, !tbaa !25
  call void (ptr, ptr, ...) @qasm_recordComment(ptr noundef byval(%struct.Qureg) align 8 %0, ptr noundef @.str.10, i32 noundef %40, double noundef %41)
  call void @llvm.lifetime.end.p0(i64 4, ptr %10) #7
  ret void
}