; Function Attrs: nounwind uwtable
define void @multiRotatePauli(ptr noundef readonly byval(%struct.Qureg) align 8 captures(none) %0, ptr noundef %1, ptr noundef %2, i32 noundef %3, double noundef %4) local_unnamed_addr #0 {
  tail call void @validateMultiTargets(ptr noundef nonnull byval(%struct.Qureg) align 8 %0, ptr noundef %1, i32 noundef %3, ptr noundef nonnull @__func__.multiRotatePauli) #17
  tail call void @validatePauliCodes(ptr noundef %2, i32 noundef %3, ptr noundef nonnull @__func__.multiRotatePauli) #17
  tail call void @statevec_multiRotatePauli(ptr noundef nonnull byval(%struct.Qureg) align 8 %0, ptr noundef %1, ptr noundef %2, i32 noundef %3, double noundef %4, i32 noundef 0) #17
  %6 = load i32, ptr %0, align 8, !tbaa !12
  %.not = icmp eq i32 %6, 0
  br i1 %.not, label %11, label %7

7:                                                ; preds = %5
  %8 = getelementptr inbounds nuw i8, ptr %0, i64 4
  %9 = load i32, ptr %8, align 4, !tbaa !17
  tail call void @shiftIndices(ptr noundef %1, i32 noundef %3, i32 noundef %9) #17
  tail call void @statevec_multiRotatePauli(ptr noundef nonnull byval(%struct.Qureg) align 8 %0, ptr noundef %1, ptr noundef %2, i32 noundef %3, double noundef %4, i32 noundef 1) #17
  %10 = sub nsw i32 0, %9
  tail call void @shiftIndices(ptr noundef %1, i32 noundef %3, i32 noundef %10) #17
  br label %11

11:                                               ; preds = %7, %5
  tail call void (ptr, ptr, ...) @qasm_recordComment(ptr noundef nonnull byval(%struct.Qureg) align 8 %0, ptr noundef nonnull @.str.10, i32 noundef %3, double noundef %4) #17
  ret void
}